; Function Attrs: null_pointer_is_valid sspstrong uwtable
define internal fastcc void @print_nsap_net_buf(ptr noundef readonly captures(none) %0, i32 noundef %1, ptr noundef %2, i32 noundef %3) unnamed_addr #0 {
  %5 = add i32 %1, -31
  %or.cond = icmp ult i32 %5, -30
  br i1 %or.cond, label %6, label %9

6:                                                ; preds = %4
  %7 = sext i32 %3 to i64
  %8 = tail call i64 @g_strlcpy(ptr noundef %2, ptr noundef nonnull @.str.8, i64 noundef %7)
  br label %60

9:                                                ; preds = %4
  %10 = and i32 %1, 30
  %or.cond3 = icmp eq i32 %10, 20
  br i1 %or.cond3, label %11, label %58

11:                                               ; preds = %9
  %12 = icmp eq i32 %1, 21
  tail call fastcc void @print_address_prefix_buf(ptr noundef readonly %0, i32 noundef 26, ptr noundef %2, i32 noundef %3)
  %13 = tail call i64 @strlen(ptr noundef %2) #8
  %14 = getelementptr i8, ptr %2, i64 %13
  %15 = getelementptr i8, ptr %0, i64 13
  %16 = sext i32 %3 to i64
  %17 = ptrtoint ptr %2 to i64
  %18 = trunc i64 %13 to i32
  %19 = sub i32 %3, %18
  %20 = sext i32 %19 to i64
  %21 = load i8, ptr %15, align 1
  %22 = zext i8 %21 to i32
  %23 = getelementptr i8, ptr %0, i64 14
  %24 = load i8, ptr %23, align 1
  %25 = zext i8 %24 to i32
  %26 = getelementptr i8, ptr %0, i64 15
  %27 = load i8, ptr %26, align 1
  %28 = zext i8 %27 to i32
  %29 = getelementptr i8, ptr %0, i64 16
  %30 = load i8, ptr %29, align 1
  %31 = zext i8 %30 to i32
  %32 = getelementptr i8, ptr %0, i64 17
  %33 = load i8, ptr %32, align 1
  %34 = zext i8 %33 to i32
  %35 = getelementptr i8, ptr %0, i64 18
  %36 = load i8, ptr %35, align 1
  %37 = zext i8 %36 to i32
  %38 = tail call i32 (ptr, i64, i32, i64, ptr, ...) @__snprintf_chk(ptr noundef %14, i64 noundef %20, i32 noundef 2, i64 noundef -1, ptr noundef nonnull @.str.1, i32 noundef %22, i32 noundef %25, i32 noundef %28, i32 noundef %31, i32 noundef %34, i32 noundef %37)
  %39 = tail call i64 @strlen(ptr noundef %14) #8
  %40 = getelementptr i8, ptr %14, i64 %39
  %41 = ptrtoint ptr %40 to i64
  %.neg = add i64 %16, %17
  %42 = sub i64 %.neg, %41
  %43 = getelementptr i8, ptr %0, i64 19
  %44 = load i8, ptr %43, align 1
  %45 = zext i8 %44 to i32
  %46 = tail call i32 (ptr, i64, i32, i64, ptr, ...) @__snprintf_chk(ptr noundef %40, i64 noundef %42, i32 noundef 2, i64 noundef -1, ptr noundef nonnull @.str.9, i32 noundef %45)
  br i1 %12, label %47, label %60

47:                                               ; preds = %11
  %48 = sext i32 %46 to i64
  %49 = getelementptr i8, ptr %40, i64 %48
  %50 = ptrtoint ptr %49 to i64
  %.neg40 = sub i64 %17, %50
  %51 = trunc i64 %.neg40 to i32
  %52 = add i32 %3, %51
  %53 = sext i32 %52 to i64
  %54 = getelementptr i8, ptr %0, i64 20
  %55 = load i8, ptr %54, align 1
  %56 = zext i8 %55 to i32
  %57 = tail call i32 (ptr, i64, i32, i64, ptr, ...) @__snprintf_chk(ptr noundef %49, i64 noundef %53, i32 noundef 2, i64 noundef -1, ptr noundef nonnull @.str.3, i32 noundef %56)
  br label %60

58:                                               ; preds = %9
  %59 = shl nuw nsw i32 %1, 1
  tail call fastcc void @print_address_prefix_buf(ptr noundef readonly %0, i32 noundef %59, ptr noundef %2, i32 noundef %3)
  br label %60

60:                                               ; preds = %58, %47, %11, %6
  ret void
}